; ModuleID = '46/614.c'
source_filename = "46/614.c"
target datalayout = "e-m:e-p270:32:32-p271:32:32-p272:64:64-i64:64-f80:128-n8:16:32:64-S128"
target triple = "x86_64-pc-linux-gnu"

@.str = private unnamed_addr constant [5 x i8] c"%d%d\00", align 1
@.str.1 = private unnamed_addr constant [3 x i8] c"%d\00", align 1
@.str.2 = private unnamed_addr constant [4 x i8] c"%d\0A\00", align 1

; Function Attrs: noinline nounwind uwtable
define dso_local void @main() #0 {
  %1 = alloca [100 x [100 x i32]], align 16
  %2 = alloca i32, align 4
  %3 = alloca i32, align 4
  %4 = alloca i32, align 4
  %5 = alloca i32, align 4
  %6 = alloca i32, align 4
  %7 = call i32 (i8*, ...) @__isoc99_scanf(i8* getelementptr inbounds ([5 x i8], [5 x i8]* @.str, i64 0, i64 0), i32* %5, i32* %6)
  store i32 0, i32* %2, align 4
  br label %8

8:                                                ; preds = %29, %0
  %9 = load i32, i32* %2, align 4
  %10 = load i32, i32* %5, align 4
  %11 = icmp slt i32 %9, %10
  br i1 %11, label %12, label %32

12:                                               ; preds = %8
  store i32 0, i32* %3, align 4
  br label %13

13:                                               ; preds = %25, %12
  %14 = load i32, i32* %3, align 4
  %15 = load i32, i32* %6, align 4
  %16 = icmp slt i32 %14, %15
  br i1 %16, label %17, label %28

17:                                               ; preds = %13
  %18 = load i32, i32* %2, align 4
  %19 = sext i32 %18 to i64
  %20 = getelementptr inbounds [100 x [100 x i32]], [100 x [100 x i32]]* %1, i64 0, i64 %19
  %21 = load i32, i32* %3, align 4
  %22 = sext i32 %21 to i64
  %23 = getelementptr inbounds [100 x i32], [100 x i32]* %20, i64 0, i64 %22
  %24 = call i32 (i8*, ...) @__isoc99_scanf(i8* getelementptr inbounds ([3 x i8], [3 x i8]* @.str.1, i64 0, i64 0), i32* %23)
  br label %25

25:                                               ; preds = %17
  %26 = load i32, i32* %3, align 4
  %27 = add nsw i32 %26, 1
  store i32 %27, i32* %3, align 4
  br label %13

28:                                               ; preds = %13
  br label %29

29:                                               ; preds = %28
  %30 = load i32, i32* %2, align 4
  %31 = add nsw i32 %30, 1
  store i32 %31, i32* %2, align 4
  br label %8

32:                                               ; preds = %8
  store i32 0, i32* %2, align 4
  br label %33

33:                                               ; preds = %163, %32
  %34 = load i32, i32* %2, align 4
  %35 = load i32, i32* %6, align 4
  %36 = icmp slt i32 %34, %35
  br i1 %36, label %37, label %166

37:                                               ; preds = %33
  %38 = load i32, i32* %2, align 4
  store i32 %38, i32* %3, align 4
  br label %39

39:                                               ; preds = %60, %37
  %40 = load i32, i32* %3, align 4
  %41 = load i32, i32* %6, align 4
  %42 = sub nsw i32 %41, 1
  %43 = icmp sle i32 %40, %42
  br i1 %43, label %44, label %63

44:                                               ; preds = %39
  %45 = load i32, i32* %2, align 4
  %46 = sext i32 %45 to i64
  %47 = getelementptr inbounds [100 x [100 x i32]], [100 x [100 x i32]]* %1, i64 0, i64 %46
  %48 = load i32, i32* %3, align 4
  %49 = sext i32 %48 to i64
  %50 = getelementptr inbounds [100 x i32], [100 x i32]* %47, i64 0, i64 %49
  %51 = load i32, i32* %50, align 4
  store i32 %51, i32* %4, align 4
  %52 = load i32, i32* %2, align 4
  %53 = sext i32 %52 to i64
  %54 = getelementptr inbounds [100 x [100 x i32]], [100 x [100 x i32]]* %1, i64 0, i64 %53
  %55 = load i32, i32* %3, align 4
  %56 = sext i32 %55 to i64
  %57 = getelementptr inbounds [100 x i32], [100 x i32]* %54, i64 0, i64 %56
  %58 = load i32, i32* %57, align 4
  %59 = call i32 (i8*, ...) @printf(i8* getelementptr inbounds ([4 x i8], [4 x i8]* @.str.2, i64 0, i64 0), i32 %58)
  br label %60

60:                                               ; preds = %44
  %61 = load i32, i32* %3, align 4
  %62 = add nsw i32 %61, 1
  store i32 %62, i32* %3, align 4
  br label %39

63:                                               ; preds = %39
  %64 = load i32, i32* %2, align 4
  %65 = add nsw i32 %64, 1
  store i32 %65, i32* %3, align 4
  br label %66

66:                                               ; preds = %89, %63
  %67 = load i32, i32* %3, align 4
  %68 = load i32, i32* %5, align 4
  %69 = sub nsw i32 %68, 1
  %70 = icmp sle i32 %67, %69
  br i1 %70, label %71, label %92

71:                                               ; preds = %66
  %72 = load i32, i32* %3, align 4
  %73 = sext i32 %72 to i64
  %74 = getelementptr inbounds [100 x [100 x i32]], [100 x [100 x i32]]* %1, i64 0, i64 %73
  %75 = load i32, i32* %6, align 4
  %76 = sub nsw i32 %75, 1
  %77 = sext i32 %76 to i64
  %78 = getelementptr inbounds [100 x i32], [100 x i32]* %74, i64 0, i64 %77
  %79 = load i32, i32* %78, align 4
  store i32 %79, i32* %4, align 4
  %80 = load i32, i32* %3, align 4
  %81 = sext i32 %80 to i64
  %82 = getelementptr inbounds [100 x [100 x i32]], [100 x [100 x i32]]* %1, i64 0, i64 %81
  %83 = load i32, i32* %6, align 4
  %84 = sub nsw i32 %83, 1
  %85 = sext i32 %84 to i64
  %86 = getelementptr inbounds [100 x i32], [100 x i32]* %82, i64 0, i64 %85
  %87 = load i32, i32* %86, align 4
  %88 = call i32 (i8*, ...) @printf(i8* getelementptr inbounds ([4 x i8], [4 x i8]* @.str.2, i64 0, i64 0), i32 %87)
  br label %89

89:                                               ; preds = %71
  %90 = load i32, i32* %3, align 4
  %91 = add nsw i32 %90, 1
  store i32 %91, i32* %3, align 4
  br label %66

92:                                               ; preds = %66
  %93 = load i32, i32* %2, align 4
  %94 = load i32, i32* %5, align 4
  %95 = sub nsw i32 %94, 1
  %96 = icmp sge i32 %93, %95
  br i1 %96, label %97, label %98

97:                                               ; preds = %92
  br label %166

98:                                               ; preds = %92
  %99 = load i32, i32* %2, align 4
  %100 = load i32, i32* %6, align 4
  %101 = sub nsw i32 %100, 1
  %102 = icmp sge i32 %99, %101
  br i1 %102, label %103, label %104

103:                                              ; preds = %98
  br label %166

104:                                              ; preds = %98
  %105 = load i32, i32* %6, align 4
  %106 = sub nsw i32 %105, 2
  store i32 %106, i32* %3, align 4
  br label %107

107:                                              ; preds = %129, %104
  %108 = load i32, i32* %3, align 4
  %109 = load i32, i32* %2, align 4
  %110 = icmp sge i32 %108, %109
  br i1 %110, label %111, label %132

111:                                              ; preds = %107
  %112 = load i32, i32* %5, align 4
  %113 = sub nsw i32 %112, 1
  %114 = sext i32 %113 to i64
  %115 = getelementptr inbounds [100 x [100 x i32]], [100 x [100 x i32]]* %1, i64 0, i64 %114
  %116 = load i32, i32* %3, align 4
  %117 = sext i32 %116 to i64
  %118 = getelementptr inbounds [100 x i32], [100 x i32]* %115, i64 0, i64 %117
  %119 = load i32, i32* %118, align 4
  store i32 %119, i32* %4, align 4
  %120 = load i32, i32* %5, align 4
  %121 = sub nsw i32 %120, 1
  %122 = sext i32 %121 to i64
  %123 = getelementptr inbounds [100 x [100 x i32]], [100 x [100 x i32]]* %1, i64 0, i64 %122
  %124 = load i32, i32* %3, align 4
  %125 = sext i32 %124 to i64
  %126 = getelementptr inbounds [100 x i32], [100 x i32]* %123, i64 0, i64 %125
  %127 = load i32, i32* %126, align 4
  %128 = call i32 (i8*, ...) @printf(i8* getelementptr inbounds ([4 x i8], [4 x i8]* @.str.2, i64 0, i64 0), i32 %127)
  br label %129

129:                                              ; preds = %111
  %130 = load i32, i32* %3, align 4
  %131 = add nsw i32 %130, -1
  store i32 %131, i32* %3, align 4
  br label %107

132:                                              ; preds = %107
  %133 = load i32, i32* %5, align 4
  %134 = sub nsw i32 %133, 2
  store i32 %134, i32* %3, align 4
  br label %135

135:                                              ; preds = %155, %132
  %136 = load i32, i32* %3, align 4
  %137 = load i32, i32* %2, align 4
  %138 = icmp sgt i32 %136, %137
  br i1 %138, label %139, label %158

139:                                              ; preds = %135
  %140 = load i32, i32* %3, align 4
  %141 = sext i32 %140 to i64
  %142 = getelementptr inbounds [100 x [100 x i32]], [100 x [100 x i32]]* %1, i64 0, i64 %141
  %143 = load i32, i32* %2, align 4
  %144 = sext i32 %143 to i64
  %145 = getelementptr inbounds [100 x i32], [100 x i32]* %142, i64 0, i64 %144
  %146 = load i32, i32* %145, align 4
  store i32 %146, i32* %4, align 4
  %147 = load i32, i32* %3, align 4
  %148 = sext i32 %147 to i64
  %149 = getelementptr inbounds [100 x [100 x i32]], [100 x [100 x i32]]* %1, i64 0, i64 %148
  %150 = load i32, i32* %2, align 4
  %151 = sext i32 %150 to i64
  %152 = getelementptr inbounds [100 x i32], [100 x i32]* %149, i64 0, i64 %151
  %153 = load i32, i32* %152, align 4
  %154 = call i32 (i8*, ...) @printf(i8* getelementptr inbounds ([4 x i8], [4 x i8]* @.str.2, i64 0, i64 0), i32 %153)
  br label %155

155:                                              ; preds = %139
  %156 = load i32, i32* %3, align 4
  %157 = add nsw i32 %156, -1
  store i32 %157, i32* %3, align 4
  br label %135

158:                                              ; preds = %135
  %159 = load i32, i32* %5, align 4
  %160 = add nsw i32 %159, -1
  store i32 %160, i32* %5, align 4
  %161 = load i32, i32* %6, align 4
  %162 = add nsw i32 %161, -1
  store i32 %162, i32* %6, align 4
  br label %163

163:                                              ; preds = %158
  %164 = load i32, i32* %2, align 4
  %165 = add nsw i32 %164, 1
  store i32 %165, i32* %2, align 4
  br label %33

166:                                              ; preds = %103, %97, %33
  ret void
}

declare dso_local i32 @__isoc99_scanf(i8*, ...) #1

declare dso_local i32 @printf(i8*, ...) #1


!llvm.module.flags = !{!0}
!llvm.ident = !{!1}

!0 = !{i32 1, !"wchar_size", i32 4}
!1 = !{!"clang version 10.0.0-4ubuntu1 "}
