; ModuleID = 'source-C-CXX/45/614.c'
source_filename = "source-C-CXX/45/614.c"
target datalayout = "e-m:e-p270:32:32-p271:32:32-p272:64:64-i64:64-f80:128-n8:16:32:64-S128"
target triple = "x86_64-pc-linux-gnu"

@.str = private unnamed_addr constant [5 x i8] c"%d%d\00", align 1
@.str.1 = private unnamed_addr constant [3 x i8] c"%d\00", align 1
@.str.2 = private unnamed_addr constant [4 x i8] c"%d\0A\00", align 1

; Function Attrs: nofree nounwind sspstrong uwtable
define dso_local void @main() local_unnamed_addr #0 {
  %1 = alloca [100 x [100 x i32]], align 16
  %2 = alloca i32, align 4
  %3 = alloca i32, align 4
  %4 = bitcast [100 x [100 x i32]]* %1 to i8*
  call void @llvm.lifetime.start.p0i8(i64 40000, i8* nonnull %4) #3
  %5 = bitcast i32* %2 to i8*
  call void @llvm.lifetime.start.p0i8(i64 4, i8* nonnull %5) #3
  %6 = bitcast i32* %3 to i8*
  call void @llvm.lifetime.start.p0i8(i64 4, i8* nonnull %6) #3
  %7 = call i32 (i8*, ...) @__isoc99_scanf(i8* getelementptr inbounds ([5 x i8], [5 x i8]* @.str, i64 0, i64 0), i32* nonnull %2, i32* nonnull %3)
  %8 = load i32, i32* %2, align 4, !tbaa !5
  %9 = icmp sgt i32 %8, 0
  %10 = load i32, i32* %3, align 4, !tbaa !5
  br i1 %9, label %11, label %18

11:                                               ; preds = %0
  %12 = icmp sgt i32 %10, 0
  br i1 %12, label %13, label %139

13:                                               ; preds = %11, %32
  %14 = phi i32 [ %33, %32 ], [ %8, %11 ]
  %15 = phi i32 [ %34, %32 ], [ %10, %11 ]
  %16 = phi i64 [ %35, %32 ], [ 0, %11 ]
  %17 = icmp sgt i32 %15, 0
  br i1 %17, label %22, label %32

18:                                               ; preds = %32, %0
  %19 = phi i32 [ %8, %0 ], [ %33, %32 ]
  %20 = phi i32 [ %10, %0 ], [ %34, %32 ]
  %21 = icmp sgt i32 %20, 0
  br i1 %21, label %38, label %139

22:                                               ; preds = %13, %22
  %23 = phi i64 [ %26, %22 ], [ 0, %13 ]
  %24 = getelementptr inbounds [100 x [100 x i32]], [100 x [100 x i32]]* %1, i64 0, i64 %16, i64 %23
  %25 = call i32 (i8*, ...) @__isoc99_scanf(i8* getelementptr inbounds ([3 x i8], [3 x i8]* @.str.1, i64 0, i64 0), i32* nonnull %24)
  %26 = add nuw nsw i64 %23, 1
  %27 = load i32, i32* %3, align 4, !tbaa !5
  %28 = sext i32 %27 to i64
  %29 = icmp slt i64 %26, %28
  br i1 %29, label %22, label %30, !llvm.loop !9

30:                                               ; preds = %22
  %31 = load i32, i32* %2, align 4, !tbaa !5
  br label %32

32:                                               ; preds = %30, %13
  %33 = phi i32 [ %31, %30 ], [ %14, %13 ]
  %34 = phi i32 [ %27, %30 ], [ %15, %13 ]
  %35 = add nuw nsw i64 %16, 1
  %36 = sext i32 %33 to i64
  %37 = icmp slt i64 %35, %36
  br i1 %37, label %13, label %18, !llvm.loop !11

38:                                               ; preds = %18, %131
  %39 = phi i32 [ %133, %131 ], [ %19, %18 ]
  %40 = phi i32 [ %135, %131 ], [ %20, %18 ]
  %41 = phi i64 [ %138, %131 ], [ 1, %18 ]
  %42 = phi i64 [ %59, %131 ], [ 0, %18 ]
  %43 = sext i32 %40 to i64
  %44 = icmp slt i64 %42, %43
  br i1 %44, label %45, label %56

45:                                               ; preds = %38, %45
  %46 = phi i64 [ %50, %45 ], [ %42, %38 ]
  %47 = getelementptr inbounds [100 x [100 x i32]], [100 x [100 x i32]]* %1, i64 0, i64 %42, i64 %46
  %48 = load i32, i32* %47, align 4, !tbaa !5
  %49 = call i32 (i8*, ...) @printf(i8* nonnull dereferenceable(1) getelementptr inbounds ([4 x i8], [4 x i8]* @.str.2, i64 0, i64 0), i32 %48)
  %50 = add nuw nsw i64 %46, 1
  %51 = load i32, i32* %3, align 4, !tbaa !5
  %52 = trunc i64 %50 to i32
  %53 = icmp sgt i32 %51, %52
  br i1 %53, label %45, label %54, !llvm.loop !13

54:                                               ; preds = %45
  %55 = load i32, i32* %2, align 4, !tbaa !5
  br label %56

56:                                               ; preds = %54, %38
  %57 = phi i32 [ %51, %54 ], [ %40, %38 ]
  %58 = phi i32 [ %55, %54 ], [ %39, %38 ]
  %59 = add nuw nsw i64 %42, 1
  %60 = sext i32 %58 to i64
  %61 = icmp slt i64 %59, %60
  br i1 %61, label %62, label %84

62:                                               ; preds = %56
  %63 = add nsw i32 %57, -1
  %64 = sext i32 %63 to i64
  %65 = getelementptr inbounds [100 x [100 x i32]], [100 x [100 x i32]]* %1, i64 0, i64 %41, i64 %64
  %66 = load i32, i32* %65, align 4, !tbaa !5
  %67 = call i32 (i8*, ...) @printf(i8* nonnull dereferenceable(1) getelementptr inbounds ([4 x i8], [4 x i8]* @.str.2, i64 0, i64 0), i32 %66)
  %68 = add nuw nsw i64 %41, 1
  %69 = load i32, i32* %2, align 4, !tbaa !5
  %70 = trunc i64 %68 to i32
  %71 = icmp sgt i32 %69, %70
  br i1 %71, label %72, label %84, !llvm.loop !14

72:                                               ; preds = %62, %72
  %73 = phi i64 [ %80, %72 ], [ %68, %62 ]
  %74 = load i32, i32* %3, align 4, !tbaa !5
  %75 = add nsw i32 %74, -1
  %76 = sext i32 %75 to i64
  %77 = getelementptr inbounds [100 x [100 x i32]], [100 x [100 x i32]]* %1, i64 0, i64 %73, i64 %76
  %78 = load i32, i32* %77, align 4, !tbaa !5
  %79 = call i32 (i8*, ...) @printf(i8* nonnull dereferenceable(1) getelementptr inbounds ([4 x i8], [4 x i8]* @.str.2, i64 0, i64 0), i32 %78)
  %80 = add nuw nsw i64 %73, 1
  %81 = load i32, i32* %2, align 4, !tbaa !5
  %82 = trunc i64 %80 to i32
  %83 = icmp sgt i32 %81, %82
  br i1 %83, label %72, label %84, !llvm.loop !14

84:                                               ; preds = %72, %62, %56
  %85 = phi i32 [ %58, %56 ], [ %69, %62 ], [ %81, %72 ]
  %86 = add nsw i32 %85, -1
  %87 = sext i32 %86 to i64
  %88 = icmp slt i64 %42, %87
  br i1 %88, label %89, label %139

89:                                               ; preds = %84
  %90 = load i32, i32* %3, align 4, !tbaa !5
  %91 = add nsw i32 %90, -1
  %92 = sext i32 %91 to i64
  %93 = icmp slt i64 %42, %92
  br i1 %93, label %94, label %139

94:                                               ; preds = %89
  %95 = add i32 %90, -2
  %96 = sext i32 %95 to i64
  %97 = icmp sgt i64 %42, %96
  br i1 %97, label %117, label %98

98:                                               ; preds = %94
  %99 = add nsw i32 %85, -1
  %100 = sext i32 %99 to i64
  %101 = getelementptr inbounds [100 x [100 x i32]], [100 x [100 x i32]]* %1, i64 0, i64 %100, i64 %96
  %102 = load i32, i32* %101, align 4, !tbaa !5
  %103 = call i32 (i8*, ...) @printf(i8* nonnull dereferenceable(1) getelementptr inbounds ([4 x i8], [4 x i8]* @.str.2, i64 0, i64 0), i32 %102)
  %104 = icmp slt i64 %42, %96
  br i1 %104, label %105, label %115, !llvm.loop !15

105:                                              ; preds = %98, %105
  %106 = phi i64 [ %107, %105 ], [ %96, %98 ]
  %107 = add nsw i64 %106, -1
  %108 = load i32, i32* %2, align 4, !tbaa !5
  %109 = add nsw i32 %108, -1
  %110 = sext i32 %109 to i64
  %111 = getelementptr inbounds [100 x [100 x i32]], [100 x [100 x i32]]* %1, i64 0, i64 %110, i64 %107
  %112 = load i32, i32* %111, align 4, !tbaa !5
  %113 = call i32 (i8*, ...) @printf(i8* nonnull dereferenceable(1) getelementptr inbounds ([4 x i8], [4 x i8]* @.str.2, i64 0, i64 0), i32 %112)
  %114 = icmp sgt i64 %107, %42
  br i1 %114, label %105, label %115, !llvm.loop !15

115:                                              ; preds = %105, %98
  %116 = load i32, i32* %2, align 4, !tbaa !5
  br label %117

117:                                              ; preds = %115, %94
  %118 = phi i32 [ %116, %115 ], [ %85, %94 ]
  %119 = add i32 %118, -2
  %120 = sext i32 %119 to i64
  %121 = icmp slt i64 %42, %120
  br i1 %121, label %122, label %131

122:                                              ; preds = %117, %122
  %123 = phi i64 [ %127, %122 ], [ %120, %117 ]
  %124 = getelementptr inbounds [100 x [100 x i32]], [100 x [100 x i32]]* %1, i64 0, i64 %123, i64 %42
  %125 = load i32, i32* %124, align 4, !tbaa !5
  %126 = call i32 (i8*, ...) @printf(i8* nonnull dereferenceable(1) getelementptr inbounds ([4 x i8], [4 x i8]* @.str.2, i64 0, i64 0), i32 %125)
  %127 = add nsw i64 %123, -1
  %128 = icmp sgt i64 %127, %42
  br i1 %128, label %122, label %129, !llvm.loop !16

129:                                              ; preds = %122
  %130 = load i32, i32* %2, align 4, !tbaa !5
  br label %131

131:                                              ; preds = %129, %117
  %132 = phi i32 [ %130, %129 ], [ %118, %117 ]
  %133 = add nsw i32 %132, -1
  store i32 %133, i32* %2, align 4, !tbaa !5
  %134 = load i32, i32* %3, align 4, !tbaa !5
  %135 = add nsw i32 %134, -1
  store i32 %135, i32* %3, align 4, !tbaa !5
  %136 = sext i32 %135 to i64
  %137 = icmp slt i64 %59, %136
  %138 = add nuw nsw i64 %41, 1
  br i1 %137, label %38, label %139, !llvm.loop !17

139:                                              ; preds = %131, %84, %89, %11, %18
  call void @llvm.lifetime.end.p0i8(i64 4, i8* nonnull %6) #3
  call void @llvm.lifetime.end.p0i8(i64 4, i8* nonnull %5) #3
  call void @llvm.lifetime.end.p0i8(i64 40000, i8* nonnull %4) #3
  ret void
}

; Function Attrs: argmemonly mustprogress nofree nosync nounwind willreturn
declare void @llvm.lifetime.start.p0i8(i64 immarg, i8* nocapture) #1

; Function Attrs: nofree nounwind
declare noundef i32 @__isoc99_scanf(i8* nocapture noundef readonly, ...) local_unnamed_addr #2

; Function Attrs: nofree nounwind
declare noundef i32 @printf(i8* nocapture noundef readonly, ...) local_unnamed_addr #2

; Function Attrs: argmemonly mustprogress nofree nosync nounwind willreturn
declare void @llvm.lifetime.end.p0i8(i64 immarg, i8* nocapture) #1


!llvm.module.flags = !{!0, !1, !2, !3}
!llvm.ident = !{!4}

!0 = !{i32 1, !"wchar_size", i32 4}
!1 = !{i32 7, !"PIC Level", i32 2}
!2 = !{i32 7, !"PIE Level", i32 2}
!3 = !{i32 7, !"uwtable", i32 1}
!4 = !{!"clang version 13.0.0"}
!5 = !{!6, !6, i64 0}
!6 = !{!"int", !7, i64 0}
!7 = !{!"omnipotent char", !8, i64 0}
!8 = !{!"Simple C/C++ TBAA"}
!9 = distinct !{!9, !10}
!10 = !{!"llvm.loop.mustprogress"}
!11 = distinct !{!11, !10, !12}
!12 = !{!"llvm.loop.unswitch.partial.disable"}
!13 = distinct !{!13, !10}
!14 = distinct !{!14, !10}
!15 = distinct !{!15, !10}
!16 = distinct !{!16, !10}
!17 = distinct !{!17, !10}
